; Function Attrs: nounwind uwtable
define void @Cudd_SetTree(ptr noundef captures(none) %0, ptr noundef %1) local_unnamed_addr #0 {
  %3 = getelementptr inbounds nuw i8, ptr %0, i64 520
  %4 = load ptr, ptr %3, align 8
  %.not = icmp eq ptr %4, null
  br i1 %.not, label %6, label %5

5:                                                ; preds = %2
  tail call void @Mtr_FreeTree(ptr noundef nonnull %4) #20
  br label %6

6:                                                ; preds = %5, %2
  store ptr %1, ptr %3, align 8
  %7 = icmp eq ptr %1, null
  br i1 %7, label %13, label %8

8:                                                ; preds = %6
  %9 = getelementptr inbounds nuw i8, ptr %0, i64 312
  %10 = load ptr, ptr %9, align 8
  %11 = getelementptr inbounds nuw i8, ptr %0, i64 136
  %12 = load i32, ptr %11, align 8
  tail call fastcc void @fixVarTree(ptr noundef %1, ptr noundef %10, i32 noundef %12)
  br label %13

13:                                               ; preds = %6, %8
  ret void
}